; Function Attrs: nounwind uwtable
define internal fastcc range(i32 -1, 1) i32 @_handle_state(i32 noundef %0, ptr noundef readonly captures(none) %1) unnamed_addr #0 {
  %3 = getelementptr inbounds nuw i8, ptr %1, i64 16
  br label %.lr.ph.split

.lr.ph.split:                                     ; preds = %.lr.ph.split.backedge, %2
  %.015.ph36 = phi ptr [ %3, %2 ], [ %16, %.lr.ph.split.backedge ]
  %.016.ph34 = phi i64 [ 4, %2 ], [ %17, %.lr.ph.split.backedge ]
  %4 = tail call i64 @write(i32 noundef %0, ptr noundef %.015.ph36, i64 noundef %.016.ph34) #13
  %5 = and i64 %4, 2147483648
  %.not2032 = icmp eq i64 %5, 0
  br i1 %.not2032, label %.split.us, label %.lr.ph33

.lr.ph33:                                         ; preds = %.lr.ph.split
  %6 = tail call ptr @__errno_location() #14
  br label %7

7:                                                ; preds = %.lr.ph33, %9
  %8 = load i32, ptr %6, align 4
  switch i32 %8, label %.split27.us [
    i32 11, label %9
    i32 4, label %9
  ]

9:                                                ; preds = %7, %7
  %10 = tail call i64 @write(i32 noundef %0, ptr noundef %.015.ph36, i64 noundef %.016.ph34) #13
  %11 = and i64 %10, 2147483648
  %.not20 = icmp eq i64 %11, 0
  br i1 %.not20, label %.split.us, label %7

.split27.us:                                      ; preds = %7
  %12 = tail call i32 @get_log_level() #13
  %13 = icmp sgt i32 %12, 4
  br i1 %13, label %14, label %.thread

14:                                               ; preds = %.split27.us
  tail call void (i32, ptr, ...) @log_var(i32 noundef 5, ptr noundef nonnull @.str.36, ptr noundef nonnull @.str.26, i32 noundef 997, ptr noundef nonnull @__func__._handle_state, i64 noundef %.016.ph34, i32 noundef 4) #13
  br label %.thread

.split.us:                                        ; preds = %9, %.lr.ph.split
  %.us-phi = phi i64 [ %4, %.lr.ph.split ], [ %10, %9 ]
  %15 = and i64 %.us-phi, 2147483647
  %16 = getelementptr inbounds nuw i8, ptr %.015.ph36, i64 %15
  %17 = sub i64 %.016.ph34, %15
  %.not21 = icmp eq i64 %17, 0
  br i1 %.not21, label %.thread, label %18

18:                                               ; preds = %.split.us
  %19 = tail call i32 @get_log_level() #13
  %20 = icmp sgt i32 %19, 6
  br i1 %20, label %21, label %.lr.ph.split.backedge

21:                                               ; preds = %18
  tail call void (i32, ptr, ...) @log_var(i32 noundef 7, ptr noundef nonnull @.str.37, ptr noundef nonnull @.str.26, i32 noundef 997, ptr noundef nonnull @__func__._handle_state, i64 noundef %17, i32 noundef 4) #13
  br label %.lr.ph.split.backedge

.lr.ph.split.backedge:                            ; preds = %21, %18
  br label %.lr.ph.split, !llvm.loop !27

.thread:                                          ; preds = %.split.us, %.split27.us, %14
  %22 = phi i32 [ -1, %14 ], [ -1, %.split27.us ], [ 0, %.split.us ]
  ret i32 %22
}